; Function Attrs: mustprogress uwtable
define hidden void @_ZN4cvc58internal6theory2bv8ensureBvEPNS0_11NodeManagerERKNS0_8TypeNodeE(ptr dead_on_unwind noalias writable sret(%"class.cvc5::internal::TypeNode") align 8 %0, ptr noundef %1, ptr noundef nonnull align 8 dereferenceable(8) %2) local_unnamed_addr #3 {
  %4 = load ptr, ptr %2, align 8, !tbaa !3
  %5 = getelementptr inbounds nuw i8, ptr %4, i64 8
  %6 = load i64, ptr %5, align 8
  %7 = and i64 %6, 1023
  %8 = icmp eq i64 %7, 15
  br i1 %8, label %9, label %13

9:                                                ; preds = %3
  %10 = tail call noundef i32 @_ZNK4cvc58internal8TypeNode17getAbstractedKindEv(ptr noundef nonnull align 8 dereferenceable(8) %2)
  %11 = icmp eq i32 %10, 15
  br i1 %11, label %12, label %._crit_edge

._crit_edge:                                      ; preds = %9
  %.pre = load ptr, ptr %2, align 8, !tbaa !3
  br label %13

12:                                               ; preds = %9
  tail call void @_ZN4cvc58internal11NodeManager14mkAbstractTypeENS0_4kind6Kind_tE(ptr dead_on_unwind writable sret(%"class.cvc5::internal::TypeNode") align 8 %0, ptr noundef nonnull align 8 dereferenceable(3560) %1, i32 noundef 87)
  br label %_ZN4cvc58internal8TypeNodeC2ERKS1_.exit

13:                                               ; preds = %._crit_edge, %3
  %14 = phi ptr [ %.pre, %._crit_edge ], [ %4, %3 ]
  store ptr %14, ptr %0, align 8, !tbaa !3
  %15 = load i64, ptr %14, align 8
  %16 = lshr i64 %15, 40
  %17 = trunc nuw nsw i64 %16 to i32
  %18 = and i32 %17, 1048575
  %19 = icmp samesign ult i32 %18, 1048574
  br i1 %19, label %20, label %25, !prof !11

20:                                               ; preds = %13
  %21 = add i64 %15, 1099511627776
  %22 = and i64 %21, 1152920405095219200
  %23 = and i64 %15, -1152920405095219201
  %24 = or disjoint i64 %22, %23
  store i64 %24, ptr %14, align 8
  br label %_ZN4cvc58internal8TypeNodeC2ERKS1_.exit

25:                                               ; preds = %13
  %26 = icmp eq i32 %18, 1048574
  br i1 %26, label %27, label %_ZN4cvc58internal8TypeNodeC2ERKS1_.exit, !prof !12

27:                                               ; preds = %25
  %28 = or i64 %15, 1152920405095219200
  store i64 %28, ptr %14, align 8
  tail call void @_ZN4cvc58internal4expr9NodeValue20markRefCountMaxedOutEv(ptr noundef nonnull align 8 dereferenceable(24) %14)
  br label %_ZN4cvc58internal8TypeNodeC2ERKS1_.exit

_ZN4cvc58internal8TypeNodeC2ERKS1_.exit:          ; preds = %27, %25, %20, %12
  ret void
}